target datalayout = "e-m:e-p270:32:32-p271:32:32-p272:64:64-i64:64-i128:128-f80:128-n8:16:32:64-S128"
target triple = "x86_64-pc-linux-gnu"

@repeated_doc_slots_spec = hidden global { ptr, i32, i32, i32, [4 x i8], ptr } { ptr @.str.2, i32 16, i32 0, i32 0, [4 x i8] zeroinitializer, ptr @repeated_doc_slots }, align 8
@repeated_members_slots_spec = hidden global { ptr, i32, i32, i32, [4 x i8], ptr } { ptr @.str.3, i32 24, i32 0, i32 0, [4 x i8] zeroinitializer, ptr @repeated_members_slots }, align 8
@PyExc_ValueError = external global ptr, align 8
@.str.49 = private unnamed_addr constant [17 x i8] c"bad test variant\00", align 1

; Function Attrs: nounwind uwtable
define internal ptr @create_type_from_repeated_slots(ptr noundef %0, ptr noundef %1) #0 {
  %3 = alloca ptr, align 8
  %4 = alloca ptr, align 8
  %5 = alloca ptr, align 8
  %6 = alloca ptr, align 8
  %7 = alloca i32, align 4
  %8 = alloca i32, align 4
  store ptr %0, ptr %4, align 8, !tbaa !3
  store ptr %1, ptr %5, align 8, !tbaa !3
  call void @llvm.lifetime.start.p0(i64 8, ptr %6) #9
  store ptr null, ptr %6, align 8, !tbaa !3
  call void @llvm.lifetime.start.p0(i64 4, ptr %7) #9
  %9 = load ptr, ptr %5, align 8, !tbaa !3
  %10 = call i64 @PyLong_AsLong(ptr noundef %9)
  %11 = trunc i64 %10 to i32
  store i32 %11, ptr %7, align 4, !tbaa !10
  %12 = call ptr @PyErr_Occurred()
  %13 = icmp ne ptr %12, null
  br i1 %13, label %14, label %15

14:                                               ; preds = %2
  store ptr null, ptr %3, align 8
  store i32 1, ptr %8, align 4
  br label %25

15:                                               ; preds = %2
  %16 = load i32, ptr %7, align 4, !tbaa !10
  switch i32 %16, label %21 [
    i32 0, label %17
    i32 1, label %19
  ]

17:                                               ; preds = %15
  %18 = call ptr @PyType_FromSpec(ptr noundef @repeated_doc_slots_spec)
  store ptr %18, ptr %6, align 8, !tbaa !3
  br label %23

19:                                               ; preds = %15
  %20 = call ptr @PyType_FromSpec(ptr noundef @repeated_members_slots_spec)
  store ptr %20, ptr %6, align 8, !tbaa !3
  br label %23

21:                                               ; preds = %15
  %22 = load ptr, ptr @PyExc_ValueError, align 8, !tbaa !3
  call void @PyErr_SetString(ptr noundef %22, ptr noundef @.str.49)
  br label %23

23:                                               ; preds = %21, %19, %17
  %24 = load ptr, ptr %6, align 8, !tbaa !3
  store ptr %24, ptr %3, align 8
  store i32 1, ptr %8, align 4
  br label %25

25:                                               ; preds = %23, %14
  call void @llvm.lifetime.end.p0(i64 4, ptr %7) #9
  call void @llvm.lifetime.end.p0(i64 8, ptr %6) #9
  %26 = load ptr, ptr %3, align 8
  ret ptr %26
}