; Function Attrs: nounwind uwtable
define internal ptr @create_type_from_repeated_slots(ptr readnone captures(none) %0, ptr noundef %1) #0 {
  %3 = tail call i64 @PyLong_AsLong(ptr noundef %1) #8
  %4 = tail call ptr @PyErr_Occurred() #8
  %.not = icmp eq ptr %4, null
  br i1 %.not, label %5, label %13

5:                                                ; preds = %2
  %6 = trunc i64 %3 to i32
  switch i32 %6, label %11 [
    i32 0, label %7
    i32 1, label %9
  ]

7:                                                ; preds = %5
  %8 = tail call ptr @PyType_FromSpec(ptr noundef nonnull @repeated_doc_slots_spec) #8
  br label %13

9:                                                ; preds = %5
  %10 = tail call ptr @PyType_FromSpec(ptr noundef nonnull @repeated_members_slots_spec) #8
  br label %13

11:                                               ; preds = %5
  %12 = load ptr, ptr @PyExc_ValueError, align 8, !tbaa !23
  tail call void @PyErr_SetString(ptr noundef %12, ptr noundef nonnull @.str.49) #8
  br label %13

13:                                               ; preds = %7, %9, %11, %2
  %.0 = phi ptr [ null, %2 ], [ null, %11 ], [ %10, %9 ], [ %8, %7 ]
  ret ptr %.0
}